target datalayout = "e-m:e-p270:32:32-p271:32:32-p272:64:64-i64:64-i128:128-f80:128-n8:16:32:64-S128"
target triple = "x86_64-pc-linux-gnu"

@.str.3 = private unnamed_addr constant [2 x i8] c"x\00", align 1
@.str.4 = private unnamed_addr constant [2 x i8] c"r\00", align 1
@.str.5 = private unnamed_addr constant [1 x i8] zeroinitializer, align 1
@.str.6 = private unnamed_addr constant [2 x i8] c".\00", align 1
@.str.7 = private unnamed_addr constant [6 x i8] c"%s/%s\00", align 1

; Function Attrs: nounwind uwtable
define i32 @Extra_UtilCheckFile(ptr noundef %0, ptr noundef %1) #0 {
  %3 = alloca ptr, align 8
  %4 = alloca ptr, align 8
  %5 = alloca ptr, align 8
  %6 = alloca i32, align 4
  store ptr %0, ptr %3, align 8
  store ptr %1, ptr %4, align 8
  %7 = load ptr, ptr %4, align 8
  %8 = call i32 @strcmp(ptr noundef %7, ptr noundef @.str.3) #6
  %9 = icmp eq i32 %8, 0
  br i1 %9, label %10, label %11

10:                                               ; preds = %2
  store ptr @.str.4, ptr %4, align 8
  br label %11

11:                                               ; preds = %10, %2
  %12 = load ptr, ptr %3, align 8
  %13 = load ptr, ptr %4, align 8
  %14 = call noalias ptr @fopen(ptr noundef %12, ptr noundef %13)
  store ptr %14, ptr %5, align 8
  %15 = load ptr, ptr %5, align 8
  %16 = icmp ne ptr %15, null
  %17 = zext i1 %16 to i32
  store i32 %17, ptr %6, align 4
  %18 = load ptr, ptr %5, align 8
  %19 = icmp ne ptr %18, null
  br i1 %19, label %20, label %23

20:                                               ; preds = %11
  %21 = load ptr, ptr %5, align 8
  %22 = call i32 @fclose(ptr noundef %21)
  br label %23

23:                                               ; preds = %20, %11
  %24 = load i32, ptr %6, align 4
  ret i32 %24
}

; Function Attrs: nounwind uwtable
define ptr @Extra_UtilTildeExpand(ptr noundef %0) #0 {
  %2 = alloca ptr, align 8
  store ptr %0, ptr %2, align 8
  %3 = load ptr, ptr %2, align 8
  %4 = call ptr @Extra_UtilStrsav(ptr noundef %3)
  ret ptr %4
}

; Function Attrs: nounwind uwtable
define ptr @Extra_UtilStrsav(ptr noundef %0) #0 {
  %2 = alloca ptr, align 8
  %3 = alloca ptr, align 8
  store ptr %0, ptr %3, align 8
  %4 = load ptr, ptr %3, align 8
  %5 = icmp eq ptr %4, null
  br i1 %5, label %6, label %7

6:                                                ; preds = %1
  store ptr null, ptr %2, align 8
  br label %15

7:                                                ; preds = %1
  %8 = load ptr, ptr %3, align 8
  %9 = call i64 @strlen(ptr noundef %8) #6
  %10 = add i64 %9, 1
  %11 = mul i64 1, %10
  %12 = call noalias ptr @malloc(i64 noundef %11) #8
  %13 = load ptr, ptr %3, align 8
  %14 = call ptr @strcpy(ptr noundef %12, ptr noundef %13) #7
  store ptr %14, ptr %2, align 8
  br label %15

15:                                               ; preds = %7, %6
  %16 = load ptr, ptr %2, align 8
  ret ptr %16
}

; Function Attrs: nounwind uwtable
define ptr @Extra_UtilFileSearch(ptr noundef %0, ptr noundef %1, ptr noundef %2) #0 {
  %4 = alloca ptr, align 8
  %5 = alloca ptr, align 8
  %6 = alloca ptr, align 8
  %7 = alloca ptr, align 8
  %8 = alloca i32, align 4
  %9 = alloca ptr, align 8
  %10 = alloca ptr, align 8
  %11 = alloca ptr, align 8
  %12 = alloca ptr, align 8
  store ptr %0, ptr %5, align 8
  store ptr %1, ptr %6, align 8
  store ptr %2, ptr %7, align 8
  %13 = load ptr, ptr %6, align 8
  %14 = icmp eq ptr %13, null
  br i1 %14, label %19, label %15

15:                                               ; preds = %3
  %16 = load ptr, ptr %6, align 8
  %17 = call i32 @strcmp(ptr noundef %16, ptr noundef @.str.5) #6
  %18 = icmp eq i32 %17, 0
  br i1 %18, label %19, label %20

19:                                               ; preds = %15, %3
  store ptr @.str.6, ptr %6, align 8
  br label %20

20:                                               ; preds = %19, %15
  %21 = load ptr, ptr %6, align 8
  %22 = call ptr @Extra_UtilStrsav(ptr noundef %21)
  store ptr %22, ptr %6, align 8
  store ptr %22, ptr %11, align 8
  store i32 0, ptr %8, align 4
  br label %23

23:                                               ; preds = %85, %20
  %24 = load ptr, ptr %6, align 8
  %25 = call ptr @strchr(ptr noundef %24, i32 noundef 58) #6
  store ptr %25, ptr %12, align 8
  %26 = load ptr, ptr %12, align 8
  %27 = icmp ne ptr %26, null
  br i1 %27, label %28, label %30

28:                                               ; preds = %23
  %29 = load ptr, ptr %12, align 8
  store i8 0, ptr %29, align 1
  br label %31

30:                                               ; preds = %23
  store i32 1, ptr %8, align 4
  br label %31

31:                                               ; preds = %30, %28
  %32 = load ptr, ptr %6, align 8
  %33 = call i32 @strcmp(ptr noundef %32, ptr noundef @.str.6) #6
  %34 = icmp eq i32 %33, 0
  br i1 %34, label %35, label %38

35:                                               ; preds = %31
  %36 = load ptr, ptr %5, align 8
  %37 = call ptr @Extra_UtilStrsav(ptr noundef %36)
  store ptr %37, ptr %9, align 8
  br label %51

38:                                               ; preds = %31
  %39 = load ptr, ptr %6, align 8
  %40 = call i64 @strlen(ptr noundef %39) #6
  %41 = load ptr, ptr %5, align 8
  %42 = call i64 @strlen(ptr noundef %41) #6
  %43 = add i64 %40, %42
  %44 = add i64 %43, 4
  %45 = mul i64 1, %44
  %46 = call noalias ptr @malloc(i64 noundef %45) #8
  store ptr %46, ptr %9, align 8
  %47 = load ptr, ptr %9, align 8
  %48 = load ptr, ptr %6, align 8
  %49 = load ptr, ptr %5, align 8
  %50 = call i32 (ptr, ptr, ...) @sprintf(ptr noundef %47, ptr noundef @.str.7, ptr noundef %48, ptr noundef %49) #7
  br label %51

51:                                               ; preds = %38, %35
  %52 = load ptr, ptr %9, align 8
  %53 = call ptr @Extra_UtilTildeExpand(ptr noundef %52)
  store ptr %53, ptr %10, align 8
  %54 = load ptr, ptr %9, align 8
  %55 = icmp ne ptr %54, null
  br i1 %55, label %56, label %58

56:                                               ; preds = %51
  %57 = load ptr, ptr %9, align 8
  call void @free(ptr noundef %57) #7
  store ptr null, ptr %9, align 8
  br label %59

58:                                               ; preds = %51
  br label %59

59:                                               ; preds = %58, %56
  %60 = load ptr, ptr %10, align 8
  %61 = load ptr, ptr %7, align 8
  %62 = call i32 @Extra_UtilCheckFile(ptr noundef %60, ptr noundef %61)
  %63 = icmp ne i32 %62, 0
  br i1 %63, label %64, label %72

64:                                               ; preds = %59
  %65 = load ptr, ptr %11, align 8
  %66 = icmp ne ptr %65, null
  br i1 %66, label %67, label %69

67:                                               ; preds = %64
  %68 = load ptr, ptr %11, align 8
  call void @free(ptr noundef %68) #7
  store ptr null, ptr %11, align 8
  br label %70

69:                                               ; preds = %64
  br label %70

70:                                               ; preds = %69, %67
  %71 = load ptr, ptr %10, align 8
  store ptr %71, ptr %4, align 8
  br label %93

72:                                               ; preds = %59
  %73 = load ptr, ptr %10, align 8
  %74 = icmp ne ptr %73, null
  br i1 %74, label %75, label %77

75:                                               ; preds = %72
  %76 = load ptr, ptr %10, align 8
  call void @free(ptr noundef %76) #7
  store ptr null, ptr %10, align 8
  br label %78

77:                                               ; preds = %72
  br label %78

78:                                               ; preds = %77, %75
  %79 = load i32, ptr %8, align 4
  %80 = icmp ne i32 %79, 0
  br i1 %80, label %81, label %82

81:                                               ; preds = %78
  br label %86

82:                                               ; preds = %78
  %83 = load ptr, ptr %12, align 8
  %84 = getelementptr inbounds i8, ptr %83, i32 1
  store ptr %84, ptr %12, align 8
  store ptr %84, ptr %6, align 8
  br label %85

85:                                               ; preds = %82
  br label %23

86:                                               ; preds = %81
  %87 = load ptr, ptr %11, align 8
  %88 = icmp ne ptr %87, null
  br i1 %88, label %89, label %91

89:                                               ; preds = %86
  %90 = load ptr, ptr %11, align 8
  call void @free(ptr noundef %90) #7
  store ptr null, ptr %11, align 8
  br label %92

91:                                               ; preds = %86
  br label %92

92:                                               ; preds = %91, %89
  store ptr null, ptr %4, align 8
  br label %93

93:                                               ; preds = %92, %70
  %94 = load ptr, ptr %4, align 8
  ret ptr %94
}