; Function Attrs: nounwind uwtable
define noundef ptr @Extra_UtilFileSearch(ptr noundef %0, ptr noundef readonly %1, ptr noundef readonly captures(none) %2) local_unnamed_addr #8 {
  %4 = icmp eq ptr %1, null
  br i1 %4, label %7, label %5

5:                                                ; preds = %3
  %strcmpload = load i8, ptr %1, align 1
  %6 = icmp eq i8 %strcmpload, 0
  br i1 %6, label %7, label %8

7:                                                ; preds = %5, %3
  br label %8

8:                                                ; preds = %7, %5
  %.029 = phi ptr [ @.str.6, %7 ], [ %1, %5 ]
  %9 = tail call i64 @strlen(ptr noundef nonnull readonly dereferenceable(1) %.029) #14
  %10 = add i64 %9, 1
  %11 = tail call noalias ptr @malloc(i64 noundef %10) #17
  %12 = tail call ptr @strcpy(ptr noundef nonnull dereferenceable(1) %11, ptr noundef nonnull readonly dereferenceable(1) %.029) #16
  %13 = icmp eq ptr %0, null
  %14 = getelementptr inbounds nuw i8, ptr %2, i64 1
  br label %15

15:                                               ; preds = %48, %8
  %.130 = phi ptr [ %11, %8 ], [ %49, %48 ]
  %16 = tail call ptr @strchr(ptr noundef nonnull dereferenceable(1) %.130, i32 noundef 58) #14
  %.not.not = icmp eq ptr %16, null
  br i1 %.not.not, label %sub_0, label %17

17:                                               ; preds = %15
  store i8 0, ptr %16, align 1
  br label %sub_0

sub_0:                                            ; preds = %17, %15
  %18 = load i8, ptr %.130, align 1
  %.not50 = icmp eq i8 %18, 46
  br i1 %.not50, label %.tail, label %.tail.thread

.tail:                                            ; preds = %sub_0
  %19 = getelementptr inbounds nuw i8, ptr %.130, i64 1
  %20 = load i8, ptr %19, align 1
  %21 = icmp eq i8 %20, 0
  br i1 %21, label %22, label %.tail.thread

22:                                               ; preds = %.tail
  br i1 %13, label %Extra_UtilTildeExpand.exit.thread, label %23

23:                                               ; preds = %22
  %24 = tail call i64 @strlen(ptr noundef nonnull readonly dereferenceable(1) %0) #14
  %25 = add i64 %24, 1
  %26 = tail call noalias ptr @malloc(i64 noundef %25) #17
  %27 = tail call ptr @strcpy(ptr noundef nonnull dereferenceable(1) %26, ptr noundef nonnull readonly dereferenceable(1) %0) #16
  br label %34

.tail.thread:                                     ; preds = %sub_0, %.tail
  %28 = tail call i64 @strlen(ptr noundef nonnull dereferenceable(1) %.130) #14
  %29 = tail call i64 @strlen(ptr noundef nonnull dereferenceable(1) %0) #14
  %30 = add i64 %28, 4
  %31 = add i64 %30, %29
  %32 = tail call noalias ptr @malloc(i64 noundef %31) #17
  %33 = tail call i32 (ptr, ptr, ...) @sprintf(ptr noundef nonnull dereferenceable(1) %32, ptr noundef nonnull dereferenceable(1) @.str.7, ptr noundef nonnull %.130, ptr noundef nonnull %0) #16
  br label %34

34:                                               ; preds = %.tail.thread, %23
  %.0.ph = phi ptr [ %26, %23 ], [ %32, %.tail.thread ]
  %35 = tail call i64 @strlen(ptr noundef nonnull readonly dereferenceable(1) %.0.ph) #14
  %36 = add i64 %35, 1
  %37 = tail call noalias ptr @malloc(i64 noundef %36) #17
  %38 = tail call ptr @strcpy(ptr noundef nonnull dereferenceable(1) %37, ptr noundef nonnull readonly dereferenceable(1) %.0.ph) #16
  tail call void @free(ptr noundef nonnull %.0.ph) #16
  br label %Extra_UtilTildeExpand.exit.thread

Extra_UtilTildeExpand.exit.thread:                ; preds = %22, %34
  %.0.i.i46 = phi ptr [ %37, %34 ], [ null, %22 ]
  %39 = load i8, ptr %2, align 1
  %.not.i = icmp eq i8 %39, 120
  br i1 %.not.i, label %sub_1.i, label %.tail.i

sub_1.i:                                          ; preds = %Extra_UtilTildeExpand.exit.thread
  %40 = load i8, ptr %14, align 1
  %41 = icmp eq i8 %40, 0
  %42 = select i1 %41, ptr @.str.4, ptr %2
  br label %.tail.i

.tail.i:                                          ; preds = %sub_1.i, %Extra_UtilTildeExpand.exit.thread
  %spec.store.select.i = phi ptr [ %2, %Extra_UtilTildeExpand.exit.thread ], [ %42, %sub_1.i ]
  %43 = tail call noalias ptr @fopen(ptr noundef readonly %.0.i.i46, ptr noundef nonnull %spec.store.select.i)
  %.not = icmp eq ptr %43, null
  br i1 %.not, label %46, label %44

44:                                               ; preds = %.tail.i
  %45 = tail call i32 @fclose(ptr noundef nonnull %43)
  br label %.loopexit

46:                                               ; preds = %.tail.i
  %.not38 = icmp eq ptr %.0.i.i46, null
  br i1 %.not38, label %48, label %47

47:                                               ; preds = %46
  tail call void @free(ptr noundef nonnull %.0.i.i46) #16
  br label %48

48:                                               ; preds = %46, %47
  %49 = getelementptr inbounds nuw i8, ptr %16, i64 1
  br i1 %.not.not, label %.loopexit, label %15

.loopexit:                                        ; preds = %48, %44
  %.028 = phi ptr [ %.0.i.i46, %44 ], [ null, %48 ]
  tail call void @free(ptr noundef %11) #16
  ret ptr %.028
}